target datalayout = "e-m:e-p270:32:32-p271:32:32-p272:64:64-i64:64-i128:128-f80:128-n8:16:32:64-S128"
target triple = "x86_64-pc-linux-gnu"

%struct._prefix_stats = type { ptr, i64, i64, i64, i64, i64, ptr }

@prefix_stats = internal global [256 x ptr] zeroinitializer, align 16
@num_prefixes = internal global i32 0, align 4
@total_prefix_size = internal global i32 0, align 4
@.str.2 = private unnamed_addr constant [48 x i8] c"PREFIX %s get %llu hit %llu set %llu del %llu\0D\0A\00", align 1
@.str.3 = private unnamed_addr constant [38 x i8] c"Can't allocate stats response: malloc\00", align 1
@.str.4 = private unnamed_addr constant [6 x i8] c"END\0D\0A\00", align 1

; Function Attrs: nounwind uwtable
define dso_local ptr @stats_prefix_dump(ptr noundef %0) #0 {
  %2 = alloca ptr, align 8
  %3 = alloca ptr, align 8
  %4 = alloca ptr, align 8
  %5 = alloca ptr, align 8
  %6 = alloca ptr, align 8
  %7 = alloca i32, align 4
  %8 = alloca i32, align 4
  %9 = alloca i64, align 8
  %10 = alloca i64, align 8
  %11 = alloca i32, align 4
  store ptr %0, ptr %3, align 8, !tbaa !34
  call void @llvm.lifetime.start.p0(i64 8, ptr %4) #9
  store ptr @.str.2, ptr %4, align 8, !tbaa !20
  call void @llvm.lifetime.start.p0(i64 8, ptr %5) #9
  call void @llvm.lifetime.start.p0(i64 8, ptr %6) #9
  call void @llvm.lifetime.start.p0(i64 4, ptr %7) #9
  call void @llvm.lifetime.start.p0(i64 4, ptr %8) #9
  call void @llvm.lifetime.start.p0(i64 8, ptr %9) #9
  store i64 0, ptr %9, align 8, !tbaa !21
  call void @llvm.lifetime.start.p0(i64 8, ptr %10) #9
  store i64 0, ptr %10, align 8, !tbaa !21
  call void @STATS_LOCK()
  %12 = load ptr, ptr %4, align 8, !tbaa !20
  %13 = call i64 @strlen(ptr noundef %12) #10
  %14 = load i32, ptr @total_prefix_size, align 4, !tbaa !7
  %15 = sext i32 %14 to i64
  %16 = add i64 %13, %15
  %17 = load i32, ptr @num_prefixes, align 4, !tbaa !7
  %18 = sext i32 %17 to i64
  %19 = load ptr, ptr %4, align 8, !tbaa !20
  %20 = call i64 @strlen(ptr noundef %19) #10
  %21 = sub i64 %20, 2
  %22 = add i64 %21, 64
  %23 = mul i64 %18, %22
  %24 = add i64 %16, %23
  %25 = add i64 %24, 6
  store i64 %25, ptr %9, align 8, !tbaa !21
  %26 = load i64, ptr %9, align 8, !tbaa !21
  %27 = call noalias ptr @malloc(i64 noundef %26) #12
  store ptr %27, ptr %6, align 8, !tbaa !20
  %28 = load ptr, ptr %6, align 8, !tbaa !20
  %29 = icmp eq ptr null, %28
  br i1 %29, label %30, label %31

30:                                               ; preds = %1
  call void @perror(ptr noundef @.str.3)
  call void @STATS_UNLOCK()
  store ptr null, ptr %2, align 8
  store i32 1, ptr %11, align 4
  br label %92

31:                                               ; preds = %1
  store i32 0, ptr %8, align 4, !tbaa !7
  store i32 0, ptr %7, align 4, !tbaa !7
  br label %32

32:                                               ; preds = %80, %31
  %33 = load i32, ptr %7, align 4, !tbaa !7
  %34 = icmp slt i32 %33, 256
  br i1 %34, label %35, label %83

35:                                               ; preds = %32
  %36 = load i32, ptr %7, align 4, !tbaa !7
  %37 = sext i32 %36 to i64
  %38 = getelementptr inbounds [256 x ptr], ptr @prefix_stats, i64 0, i64 %37
  %39 = load ptr, ptr %38, align 8, !tbaa !9
  store ptr %39, ptr %5, align 8, !tbaa !9
  br label %40

40:                                               ; preds = %75, %35
  %41 = load ptr, ptr %5, align 8, !tbaa !9
  %42 = icmp ne ptr null, %41
  br i1 %42, label %43, label %79

43:                                               ; preds = %40
  %44 = load ptr, ptr %6, align 8, !tbaa !20
  %45 = load i32, ptr %8, align 4, !tbaa !7
  %46 = sext i32 %45 to i64
  %47 = getelementptr inbounds i8, ptr %44, i64 %46
  %48 = load i64, ptr %9, align 8, !tbaa !21
  %49 = load i32, ptr %8, align 4, !tbaa !7
  %50 = sext i32 %49 to i64
  %51 = sub i64 %48, %50
  %52 = load ptr, ptr %4, align 8, !tbaa !20
  %53 = load ptr, ptr %5, align 8, !tbaa !9
  %54 = getelementptr inbounds nuw %struct._prefix_stats, ptr %53, i32 0, i32 0
  %55 = load ptr, ptr %54, align 8, !tbaa !16
  %56 = load ptr, ptr %5, align 8, !tbaa !9
  %57 = getelementptr inbounds nuw %struct._prefix_stats, ptr %56, i32 0, i32 2
  %58 = load i64, ptr %57, align 8, !tbaa !30
  %59 = load ptr, ptr %5, align 8, !tbaa !9
  %60 = getelementptr inbounds nuw %struct._prefix_stats, ptr %59, i32 0, i32 5
  %61 = load i64, ptr %60, align 8, !tbaa !31
  %62 = load ptr, ptr %5, align 8, !tbaa !9
  %63 = getelementptr inbounds nuw %struct._prefix_stats, ptr %62, i32 0, i32 3
  %64 = load i64, ptr %63, align 8, !tbaa !33
  %65 = load ptr, ptr %5, align 8, !tbaa !9
  %66 = getelementptr inbounds nuw %struct._prefix_stats, ptr %65, i32 0, i32 4
  %67 = load i64, ptr %66, align 8, !tbaa !32
  %68 = call i32 (ptr, i64, ptr, ...) @snprintf(ptr noundef %47, i64 noundef %51, ptr noundef %52, ptr noundef %55, i64 noundef %58, i64 noundef %61, i64 noundef %64, i64 noundef %67) #9
  %69 = sext i32 %68 to i64
  store i64 %69, ptr %10, align 8, !tbaa !21
  %70 = load i64, ptr %10, align 8, !tbaa !21
  %71 = load i32, ptr %8, align 4, !tbaa !7
  %72 = sext i32 %71 to i64
  %73 = add i64 %72, %70
  %74 = trunc i64 %73 to i32
  store i32 %74, ptr %8, align 4, !tbaa !7
  br label %75

75:                                               ; preds = %43
  %76 = load ptr, ptr %5, align 8, !tbaa !9
  %77 = getelementptr inbounds nuw %struct._prefix_stats, ptr %76, i32 0, i32 6
  %78 = load ptr, ptr %77, align 8, !tbaa !12
  store ptr %78, ptr %5, align 8, !tbaa !9
  br label %40, !llvm.loop !36

79:                                               ; preds = %40
  br label %80

80:                                               ; preds = %79
  %81 = load i32, ptr %7, align 4, !tbaa !7
  %82 = add nsw i32 %81, 1
  store i32 %82, ptr %7, align 4, !tbaa !7
  br label %32, !llvm.loop !37

83:                                               ; preds = %32
  call void @STATS_UNLOCK()
  %84 = load ptr, ptr %6, align 8, !tbaa !20
  %85 = load i32, ptr %8, align 4, !tbaa !7
  %86 = sext i32 %85 to i64
  %87 = getelementptr inbounds i8, ptr %84, i64 %86
  call void @llvm.memcpy.p0.p0.i64(ptr align 1 %87, ptr align 1 @.str.4, i64 6, i1 false)
  %88 = load i32, ptr %8, align 4, !tbaa !7
  %89 = add nsw i32 %88, 5
  %90 = load ptr, ptr %3, align 8, !tbaa !34
  store i32 %89, ptr %90, align 4, !tbaa !7
  %91 = load ptr, ptr %6, align 8, !tbaa !20
  store ptr %91, ptr %2, align 8
  store i32 1, ptr %11, align 4
  br label %92

92:                                               ; preds = %83, %30
  call void @llvm.lifetime.end.p0(i64 8, ptr %10) #9
  call void @llvm.lifetime.end.p0(i64 8, ptr %9) #9
  call void @llvm.lifetime.end.p0(i64 4, ptr %8) #9
  call void @llvm.lifetime.end.p0(i64 4, ptr %7) #9
  call void @llvm.lifetime.end.p0(i64 8, ptr %6) #9
  call void @llvm.lifetime.end.p0(i64 8, ptr %5) #9
  call void @llvm.lifetime.end.p0(i64 8, ptr %4) #9
  %93 = load ptr, ptr %2, align 8
  ret ptr %93
}