; Function Attrs: nounwind uwtable
define dso_local noalias noundef ptr @stats_prefix_dump(ptr noundef writeonly captures(none) %0) local_unnamed_addr #2 {
  tail call void @STATS_LOCK() #11
  %2 = load i32, ptr @total_prefix_size, align 4, !tbaa !18
  %3 = sext i32 %2 to i64
  %4 = load i32, ptr @num_prefixes, align 4, !tbaa !18
  %5 = sext i32 %4 to i64
  %6 = mul nsw i64 %5, 109
  %7 = add nsw i64 %3, 53
  %8 = add nsw i64 %7, %6
  %9 = tail call noalias ptr @malloc(i64 noundef %8) #15
  %10 = icmp eq ptr %9, null
  br i1 %10, label %11, label %.preheader

11:                                               ; preds = %1
  tail call void @perror(ptr noundef nonnull @.str.3) #14
  tail call void @STATS_UNLOCK() #11
  br label %32

.preheader:                                       ; preds = %1, %._crit_edge
  %indvars.iv = phi i64 [ %indvars.iv.next, %._crit_edge ], [ 0, %1 ]
  %.035 = phi i32 [ %.1.lcssa, %._crit_edge ], [ 0, %1 ]
  %12 = getelementptr inbounds nuw [256 x ptr], ptr @prefix_stats, i64 0, i64 %indvars.iv
  %.02830 = load ptr, ptr %12, align 8, !tbaa !7
  %.not31 = icmp eq ptr %.02830, null
  br i1 %.not31, label %._crit_edge, label %.lr.ph

.lr.ph:                                           ; preds = %.preheader, %.lr.ph
  %.02833 = phi ptr [ %.028, %.lr.ph ], [ %.02830, %.preheader ]
  %.132 = phi i32 [ %26, %.lr.ph ], [ %.035, %.preheader ]
  %13 = sext i32 %.132 to i64
  %14 = getelementptr inbounds i8, ptr %9, i64 %13
  %15 = sub nsw i64 %8, %13
  %16 = load ptr, ptr %.02833, align 8, !tbaa !14
  %17 = getelementptr inbounds nuw i8, ptr %.02833, i64 16
  %18 = load i64, ptr %17, align 8, !tbaa !24
  %19 = getelementptr inbounds nuw i8, ptr %.02833, i64 40
  %20 = load i64, ptr %19, align 8, !tbaa !25
  %21 = getelementptr inbounds nuw i8, ptr %.02833, i64 24
  %22 = load i64, ptr %21, align 8, !tbaa !27
  %23 = getelementptr inbounds nuw i8, ptr %.02833, i64 32
  %24 = load i64, ptr %23, align 8, !tbaa !26
  %25 = tail call i32 (ptr, i64, ptr, ...) @snprintf(ptr noundef nonnull %14, i64 noundef %15, ptr noundef nonnull @.str.2, ptr noundef %16, i64 noundef %18, i64 noundef %20, i64 noundef %22, i64 noundef %24) #11
  %26 = add i32 %25, %.132
  %27 = getelementptr inbounds nuw i8, ptr %.02833, i64 48
  %.028 = load ptr, ptr %27, align 8, !tbaa !7
  %.not = icmp eq ptr %.028, null
  br i1 %.not, label %._crit_edge, label %.lr.ph, !llvm.loop !28

._crit_edge:                                      ; preds = %.lr.ph, %.preheader
  %.1.lcssa = phi i32 [ %.035, %.preheader ], [ %26, %.lr.ph ]
  %indvars.iv.next = add nuw nsw i64 %indvars.iv, 1
  %exitcond.not = icmp eq i64 %indvars.iv.next, 256
  br i1 %exitcond.not, label %28, label %.preheader, !llvm.loop !29

28:                                               ; preds = %._crit_edge
  tail call void @STATS_UNLOCK() #11
  %29 = sext i32 %.1.lcssa to i64
  %30 = getelementptr inbounds i8, ptr %9, i64 %29
  tail call void @llvm.memcpy.p0.p0.i64(ptr noundef nonnull align 1 dereferenceable(6) %30, ptr noundef nonnull align 1 dereferenceable(6) @.str.4, i64 6, i1 false)
  %31 = add nsw i32 %.1.lcssa, 5
  store i32 %31, ptr %0, align 4, !tbaa !18
  br label %32

32:                                               ; preds = %28, %11
  ret ptr %9
}